target datalayout = "e-m:e-p270:32:32-p271:32:32-p272:64:64-i64:64-i128:128-f80:128-n8:16:32:64-S128"
target triple = "x86_64-pc-linux-gnu"

%struct._lv_animimg_t = type { %struct._lv_image_t, %struct._lv_anim_t, ptr, i8 }
%struct._lv_image_t = type { %struct._lv_obj_t, ptr, ptr, %struct.lv_point_t, i32, i32, i32, i32, i32, %struct.lv_point_t, i16 }
%struct._lv_obj_t = type { ptr, ptr, ptr, ptr, ptr, %struct.lv_area_t, i32, i16, i16 }
%struct.lv_area_t = type { i32, i32, i32, i32 }
%struct.lv_point_t = type { i32, i32 }
%struct._lv_anim_t = type { ptr, ptr, ptr, ptr, ptr, ptr, ptr, ptr, ptr, i32, i32, i32, i32, i32, i32, i32, i32, i32, %union._lv_anim_path_para_t, i32, i32, i32, i8 }
%union._lv_anim_path_para_t = type { %struct.lv_anim_bezier3_para_t }
%struct.lv_anim_bezier3_para_t = type { i16, i16, i16, i16 }

; Function Attrs: nounwind uwtable
define internal void @lv_animimg_constructor(ptr noundef %0, ptr noundef %1) #0 {
  %3 = alloca ptr, align 8
  %4 = alloca ptr, align 8
  %5 = alloca ptr, align 8
  store ptr %0, ptr %3, align 8, !tbaa !3
  store ptr %1, ptr %4, align 8, !tbaa !8
  call void @llvm.lifetime.start.p0(i64 8, ptr %5) #3
  %6 = load ptr, ptr %4, align 8, !tbaa !8
  store ptr %6, ptr %5, align 8, !tbaa !10
  %7 = load ptr, ptr %5, align 8, !tbaa !10
  %8 = getelementptr inbounds nuw %struct._lv_animimg_t, ptr %7, i32 0, i32 2
  store ptr null, ptr %8, align 8, !tbaa !12
  %9 = load ptr, ptr %5, align 8, !tbaa !10
  %10 = getelementptr inbounds nuw %struct._lv_animimg_t, ptr %9, i32 0, i32 3
  store i8 -1, ptr %10, align 8, !tbaa !23
  %11 = load ptr, ptr %5, align 8, !tbaa !10
  %12 = getelementptr inbounds nuw %struct._lv_animimg_t, ptr %11, i32 0, i32 1
  call void @lv_anim_init(ptr noundef %12)
  %13 = load ptr, ptr %5, align 8, !tbaa !10
  %14 = getelementptr inbounds nuw %struct._lv_animimg_t, ptr %13, i32 0, i32 1
  %15 = load ptr, ptr %4, align 8, !tbaa !8
  call void @lv_anim_set_var(ptr noundef %14, ptr noundef %15)
  %16 = load ptr, ptr %5, align 8, !tbaa !10
  %17 = getelementptr inbounds nuw %struct._lv_animimg_t, ptr %16, i32 0, i32 1
  call void @lv_anim_set_duration(ptr noundef %17, i32 noundef 30)
  %18 = load ptr, ptr %5, align 8, !tbaa !10
  %19 = getelementptr inbounds nuw %struct._lv_animimg_t, ptr %18, i32 0, i32 1
  call void @lv_anim_set_exec_cb(ptr noundef %19, ptr noundef @index_change)
  %20 = load ptr, ptr %5, align 8, !tbaa !10
  %21 = getelementptr inbounds nuw %struct._lv_animimg_t, ptr %20, i32 0, i32 1
  call void @lv_anim_set_values(ptr noundef %21, i32 noundef 0, i32 noundef 1)
  %22 = load ptr, ptr %5, align 8, !tbaa !10
  %23 = getelementptr inbounds nuw %struct._lv_animimg_t, ptr %22, i32 0, i32 1
  call void @lv_anim_set_repeat_count(ptr noundef %23, i32 noundef -1)
  call void @llvm.lifetime.end.p0(i64 8, ptr %5) #3
  ret void
}