; Function Attrs: nounwind uwtable
define internal void @lv_animimg_constructor(ptr readnone captures(none) %0, ptr noundef initializes((256, 265)) %1) #0 {
  %3 = getelementptr inbounds nuw i8, ptr %1, i64 256
  store ptr null, ptr %3, align 8, !tbaa !3
  %4 = getelementptr inbounds nuw i8, ptr %1, i64 264
  store i8 -1, ptr %4, align 8, !tbaa !19
  %5 = getelementptr inbounds nuw i8, ptr %1, i64 120
  tail call void @lv_anim_init(ptr noundef nonnull %5) #4
  tail call void @lv_anim_set_var(ptr noundef nonnull %5, ptr noundef %1) #4
  tail call void @lv_anim_set_duration(ptr noundef nonnull %5, i32 noundef 30) #4
  tail call void @lv_anim_set_exec_cb(ptr noundef nonnull %5, ptr noundef nonnull @index_change) #4
  tail call void @lv_anim_set_values(ptr noundef nonnull %5, i32 noundef 0, i32 noundef 1) #4
  tail call void @lv_anim_set_repeat_count(ptr noundef nonnull %5, i32 noundef -1) #4
  ret void
}